Certificate:
    Data:
        Version: 3 (0x2)
        Serial Number: 1 (0x1)
        Signature Algorithm: sha256WithRSAEncryption
        Issuer: C=US, O=HERMLEIGH.HOME, CN=Hermleigh Home Root CA
        Validity
            Not Before: May 16 16:13:27 2023 GMT
            Not After : May 13 16:13:27 2033 GMT
        Subject: C=US, O=HERMLEIGH.HOME, CN=Hermleigh Home Root CA
        Subject Public Key Info:
            Public Key Algorithm: rsaEncryption
                RSA Public-Key: (4096 bit)
                Modulus:
                    00:bd:89:ae:3c:f3:95:e3:61:cd:b7:de:1e:9d:ca:
                    bf:53:73:33:c0:9b:17:09:1e:0e:e3:f3:8a:03:27:
                    8b:e1:ca:bc:b9:cd:b6:24:2a:5b:27:92:e2:80:82:
                    5b:d5:5a:14:b0:0d:87:1f:53:03:d1:18:42:39:e1:
                    be:e2:db:0c:7d:4d:5b:bb:37:c4:b6:ad:04:c2:0c:
                    29:d2:64:92:e4:86:41:48:61:fa:6a:6d:a2:53:c7:
                    5a:88:46:69:ec:55:bf:7c:11:8a:1e:9f:75:fa:6d:
                    8c:95:a5:22:44:7b:cc:fc:5c:1d:7f:4e:6f:35:ba:
                    ac:13:99:08:f2:d9:93:9e:9b:a7:a3:3e:69:5a:ed:
                    c1:4f:06:d0:31:6a:cb:07:fd:5e:42:35:a7:bb:a2:
                    8d:18:8a:84:97:ff:ac:b0:82:23:5e:41:fc:4a:5a:
                    c5:c1:50:5b:2e:75:e3:cf:50:28:df:a9:6f:74:c8:
                    0a:ff:6f:33:11:22:5d:67:53:22:b8:96:40:06:7a:
                    e5:c1:1b:3b:bb:10:47:21:f4:71:48:2c:6b:f5:04:
                    45:c4:0c:43:3c:73:a2:75:d8:26:c2:52:ee:a5:7f:
                    21:17:9e:1a:c7:6b:32:0a:8a:1e:b3:de:64:de:69:
                    f3:70:17:e6:5d:c2:c6:86:ad:b7:a0:75:54:e5:6f:
                    99:f3:1e:21:c9:27:e3:cd:84:29:2d:3f:25:ed:74:
                    da:20:38:91:4a:e0:76:e3:bb:a1:36:57:7c:83:a5:
                    54:1f:d4:97:04:66:8c:3c:06:16:84:aa:36:2f:f9:
                    04:ee:2b:b6:28:4d:59:b7:b7:63:c4:d8:df:1b:46:
                    35:6c:5f:8a:6d:b1:d5:4e:66:70:ae:91:07:a9:a8:
                    47:b8:e4:1a:2d:15:bb:01:21:cc:e3:b6:d1:90:b8:
                    8f:72:44:7d:24:78:7b:c7:ef:2d:92:61:bd:77:d0:
                    57:fa:2e:04:41:62:bb:89:73:7f:46:c7:d0:ab:c3:
                    8b:5c:5f:d9:e6:ad:58:c9:3b:d9:e5:bc:c3:db:63:
                    60:e1:dd:86:b0:58:83:96:3d:e1:31:64:b3:07:6c:
                    e3:81:44:88:9a:9a:fd:9b:d4:a7:80:57:c5:7b:3d:
                    c9:c0:db:88:4a:71:9e:53:8c:57:5b:e9:4d:6a:19:
                    40:aa:28:84:a9:7e:f8:23:3f:46:e9:ec:2b:eb:28:
                    22:6c:c1:4b:00:a2:50:60:78:a2:d7:57:4b:c3:cb:
                    cd:49:8f:79:ff:ef:1c:a5:ae:9a:45:41:55:13:33:
                    0d:33:4f:1c:2f:aa:18:35:13:ed:c0:72:d7:d4:a7:
                    02:29:5b:ec:34:01:26:84:65:97:c1:e3:d7:a7:72:
                    5a:b2:2b
                Exponent: 65537 (0x10001)
        X509v3 extensions:
            X509v3 Basic Constraints: critical
                CA:TRUE
            X509v3 Key Usage: critical
                Digital Signature, Certificate Sign, CRL Sign
            X509v3 Extended Key Usage: critical
                Code Signing, TLS Web Client Authentication, TLS Web Server Authentication, E-mail Protection, Time Stamping
            X509v3 Subject Key Identifier: 
                BE:BC:11:F0:52:30:C6:15:01:62:E9:D1:91:4C:63:B8:58:07:CC:CD
    Signature Algorithm: sha256WithRSAEncryption
         6f:ef:88:9b:bd:9b:a0:40:00:99:b2:89:61:7b:04:bb:46:fa:
         14:6b:54:98:e6:e7:55:3c:15:75:0b:e8:82:dc:7d:44:bf:70:
         1a:86:44:74:03:e3:1e:78:ac:f2:73:34:88:97:a7:52:93:37:
         0b:33:55:9b:75:fb:89:ce:76:8a:4b:61:77:c7:9e:b7:f9:87:
         aa:bd:ae:3f:95:a7:de:b0:fd:c3:7b:e6:b8:e0:23:21:58:f2:
         da:30:3d:41:23:3a:e2:a5:6f:11:7d:d7:88:58:a1:70:b2:81:
         b1:a7:aa:6a:7a:4f:73:7b:2d:99:a7:7e:bb:39:46:b0:03:98:
         e4:49:76:57:3c:d9:6c:68:0d:5c:14:8c:8a:9a:80:05:a2:62:
         dd:dc:01:c2:bb:37:50:83:67:a4:be:45:8c:02:f9:d4:90:5c:
         90:9c:4d:92:47:8f:06:03:e4:31:c3:35:e0:63:b5:3f:9f:86:
         1e:cc:c4:e8:97:9c:8e:03:fc:cf:09:9c:22:a0:70:04:24:53:
         eb:22:6a:8b:19:d5:0f:a8:2b:2b:d8:21:b4:bb:54:ec:90:29:
         a4:e5:23:34:7a:5b:04:f0:c5:3e:f0:56:d0:fe:4e:a6:8d:47:
         e1:f3:47:a7:aa:4d:7e:9f:51:84:02:19:c5:39:a9:1d:65:3b:
         7d:c4:ad:a9:13:3d:ae:7d:6f:47:f6:57:1a:0a:5f:bf:19:ac:
         8d:8e:a8:e6:12:27:82:f6:49:c5:e7:ec:ad:8c:07:24:33:58:
         56:70:53:f0:ef:d5:35:89:7f:18:2d:75:40:9a:d4:ca:c8:c2:
         01:07:1d:a2:b8:a7:97:0a:68:d9:85:ee:72:3b:7f:d9:01:cc:
         c9:b2:b5:30:68:a2:2a:93:52:67:98:6e:d2:72:9f:b8:44:43:
         01:6e:49:02:d0:ea:8c:fd:6a:9b:32:d9:83:80:e5:85:79:25:
         e2:c5:ec:7a:bf:6d:21:cd:75:a3:61:80:0e:66:91:36:41:12:
         b6:f8:f9:9f:c0:32:78:ac:f5:5b:11:3e:32:ed:da:65:64:8e:
         77:bb:0a:b2:0b:ea:3c:c6:83:b7:55:d9:89:ad:8a:94:3e:2a:
         a3:67:bf:0f:17:f3:f5:78:55:63:82:4c:f5:ac:81:29:0e:ad:
         04:b3:d1:8e:a2:ba:4e:92:6b:88:26:84:bf:46:a0:b8:72:69:
         fe:1b:4a:c1:72:e7:5b:16:83:49:fd:25:f3:fd:d1:0d:21:3a:
         d0:de:59:5c:93:5b:92:65:42:f9:cf:ad:7f:09:d7:7c:fe:02:
         b3:1c:83:90:24:76:86:76:60:42:ca:ef:f5:1e:69:c2:62:ae:
         a8:a7:4d:b3:e1:0e:91:ff
-----BEGIN CERTIFICATE-----
MIIFjTCCA3WgAwIBAgIBATANBgkqhkiG9w0BAQsFADBHMQswCQYDVQQGEwJVUzEX
MBUGA1UEChMOSEVSTUxFSUdILkhPTUUxHzAdBgNVBAMTFkhlcm1sZWlnaCBIb21l
IFJvb3QgQ0EwHhcNMjMwNTE2MTYxMzI3WhcNMzMwNTEzMTYxMzI3WjBHMQswCQYD
VQQGEwJVUzEXMBUGA1UEChMOSEVSTUxFSUdILkhPTUUxHzAdBgNVBAMTFkhlcm1s
ZWlnaCBIb21lIFJvb3QgQ0EwggIiMA0GCSqGSIb3DQEBAQUAA4ICDwAwggIKAoIC
AQC9ia4885XjYc233h6dyr9TczPAmxcJHg7j84oDJ4vhyry5zbYkKlsnkuKAglvV
WhSwDYcfUwPRGEI54b7i2wx9TVu7N8S2rQTCDCnSZJLkhkFIYfpqbaJTx1qIRmns
Vb98EYoen3X6bYyVpSJEe8z8XB1/Tm81uqwTmQjy2ZOem6ejPmla7cFPBtAxassH
/V5CNae7oo0YioSX/6ywgiNeQfxKWsXBUFsudePPUCjfqW90yAr/bzMRIl1nUyK4
lkAGeuXBGzu7EEch9HFILGv1BEXEDEM8c6J12CbCUu6lfyEXnhrHazIKih6z3mTe
afNwF+ZdwsaGrbegdVTlb5nzHiHJJ+PNhCktPyXtdNogOJFK4Hbju6E2V3yDpVQf
1JcEZow8BhaEqjYv+QTuK7YoTVm3t2PE2N8bRjVsX4ptsdVOZnCukQepqEe45Bot
FbsBIczjttGQuI9yRH0keHvH7y2SYb130Ff6LgRBYruJc39Gx9Crw4tcX9nmrVjJ
O9nlvMPbY2Dh3YawWIOWPeExZLMHbOOBRIiamv2b1KeAV8V7PcnA24hKcZ5TjFdb
6U1qGUCqKISpfvgjP0bp7CvrKCJswUsAolBgeKLXV0vDy81Jj3n/7xylrppFQVUT
Mw0zTxwvqhg1E+3ActfUpwIpW+w0ASaEZZfB49enclqyKwIDAQABo4GDMIGAMA8G
A1UdEwEB/wQFMAMBAf8wDgYDVR0PAQH/BAQDAgGGMD4GA1UdJQEB/wQ0MDIGCCsG
AQUFBwMDBggrBgEFBQcDAgYIKwYBBQUHAwEGCCsGAQUFBwMEBggrBgEFBQcDCDAd
BgNVHQ4EFgQUvrwR8FIwxhUBYunRkUxjuFgHzM0wDQYJKoZIhvcNAQELBQADggIB
AG/viJu9m6BAAJmyiWF7BLtG+hRrVJjm51U8FXUL6ILcfUS/cBqGRHQD4x54rPJz
NIiXp1KTNwszVZt1+4nOdopLYXfHnrf5h6q9rj+Vp96w/cN75rjgIyFY8towPUEj
OuKlbxF914hYoXCygbGnqmp6T3N7LZmnfrs5RrADmORJdlc82WxoDVwUjIqagAWi
Yt3cAcK7N1CDZ6S+RYwC+dSQXJCcTZJHjwYD5DHDNeBjtT+fhh7MxOiXnI4D/M8J
nCKgcAQkU+siaosZ1Q+oKyvYIbS7VOyQKaTlIzR6WwTwxT7wVtD+TqaNR+HzR6eq
TX6fUYQCGcU5qR1lO33ErakTPa59b0f2VxoKX78ZrI2OqOYSJ4L2ScXn7K2MByQz
WFZwU/Dv1TWJfxgtdUCa1MrIwgEHHaK4p5cKaNmF7nI7f9kBzMmytTBooiqTUmeY
btJyn7hEQwFuSQLQ6oz9apsy2YOA5YV5JeLF7Hq/bSHNdaNhgA5mkTZBErb4+Z/A
Mnis9VsRPjLt2mVkjne7CrIL6jzGg7dV2YmtipQ+KqNnvw8X8/V4VWOCTPWsgSkO
rQSz0Y6iuk6Sa4gmhL9GoLhyaf4bSsFy51sWg0n9JfP90Q0hOtDeWVyTW5JlQvnP
rX8J13z+ArMcg5AkdoZ2YELK7/UeacJirqinTbPhDpH/
-----END CERTIFICATE-----
