Certificate:
    Data:
        Version: 3 (0x2)
        Serial Number: 3 (0x3)
        Signature Algorithm: sha256WithRSAEncryption
        Issuer: C=US, O=HERMLEIGH.HOME, CN=Hermleigh Home Root CA
        Validity
            Not Before: May 22 04:23:13 2023 GMT
            Not After : May 19 04:23:13 2033 GMT
        Subject: C=US, O=HERMLEIGH.HOME, OU=Kubernetes Cluster CA, CN=kubernetes-ca
        Subject Public Key Info:
            Public Key Algorithm: rsaEncryption
                RSA Public-Key: (4096 bit)
                Modulus:
                    00:bb:bc:ef:12:bc:0c:f9:c4:6f:6b:0b:fc:75:60:
                    d9:56:2b:0c:1e:85:99:39:31:3c:4a:41:0b:79:2a:
                    cb:f8:e2:dd:32:25:50:c9:96:17:33:b6:cd:b8:88:
                    f4:8f:6a:96:00:ea:f4:a1:7b:8d:01:00:78:f9:e6:
                    51:d5:f0:73:34:13:d6:0c:f2:f6:4d:d2:d1:b2:75:
                    6b:41:fb:6a:be:b1:37:76:f2:4e:7b:38:f5:12:d0:
                    7c:fc:b5:1a:33:1e:6c:2d:e7:c0:a5:0e:8d:43:bc:
                    44:5f:67:3e:98:c1:f2:97:b0:dd:b7:91:09:f6:24:
                    40:57:c6:e1:0a:15:2c:14:3b:ef:23:0c:ce:b9:0a:
                    16:64:f0:bd:0a:0d:39:9b:40:61:fd:43:b5:c0:38:
                    6a:7b:cf:f1:37:cc:59:3d:fa:ae:02:6b:f6:89:d3:
                    03:58:e0:b8:ec:62:af:8c:b8:cb:f5:c7:27:58:97:
                    18:fd:77:d8:e4:b9:0b:98:6f:63:57:30:49:ff:22:
                    39:fb:c7:3f:65:27:a5:28:78:b8:10:43:71:f0:17:
                    50:f0:8e:e1:d4:6d:e8:7c:7a:80:05:43:62:51:4a:
                    db:16:41:49:13:44:32:e3:e0:de:b0:6f:7d:a2:36:
                    d4:0c:0c:c2:91:7b:74:fc:81:2a:5e:de:05:f4:06:
                    d1:0e:86:42:31:59:cd:db:84:26:6c:69:6f:92:8e:
                    3e:c0:67:ea:d8:d8:04:eb:75:2f:7e:4a:d6:b7:3b:
                    31:da:70:b4:eb:d3:01:d1:c4:d8:77:a5:3b:2f:a0:
                    33:13:f3:1b:36:0c:03:6b:84:62:59:df:b4:63:e4:
                    23:ad:de:93:ca:0c:bc:b2:7f:33:df:24:e0:f9:42:
                    5a:99:2b:9d:15:c0:e0:3c:a6:c4:7a:f5:ed:32:83:
                    92:e7:df:c5:0a:71:3c:7e:81:f0:48:22:ee:27:bb:
                    3b:96:b1:87:3d:04:9a:e6:e6:0d:24:b4:ce:cd:b8:
                    6b:9a:b7:19:44:c7:0a:08:16:58:ce:c0:0a:25:9f:
                    07:b6:6d:bd:c9:fd:67:a9:69:4c:07:42:e8:13:73:
                    e0:74:57:23:02:f4:ff:66:27:b5:b2:33:35:47:6a:
                    c4:68:1e:1c:79:77:2b:d6:ac:35:46:bb:b9:c9:b7:
                    bc:e8:e8:73:3d:30:1e:33:a6:33:fc:d1:a5:d0:04:
                    da:d1:be:3d:30:b6:e6:47:d3:85:93:fe:d5:d4:a0:
                    5c:5d:ec:e2:74:73:20:ef:51:a6:2b:df:19:8b:6c:
                    fc:24:86:c7:36:37:8f:32:3d:d6:a3:9a:9c:96:6d:
                    76:51:7a:0f:52:b6:14:bf:16:d1:6d:fe:d1:8d:d9:
                    a0:56:c5
                Exponent: 65537 (0x10001)
        X509v3 extensions:
            Authority Information Access: 
                CA Issuers - URI:http://root-ca.hermleigh.home/root-ca.crt
                OCSP - URI:http://ocsp.root-ca.hermleigh.home:9080

            X509v3 Authority Key Identifier: 
                keyid:BE:BC:11:F0:52:30:C6:15:01:62:E9:D1:91:4C:63:B8:58:07:CC:CD

            X509v3 CRL Distribution Points: 

                Full Name:
                  URI:http://root-ca.hermleigh.home/root-ca.crl

            X509v3 Subject Key Identifier: 
                BA:28:84:5F:F1:25:4D:E3:2A:68:1C:2D:BE:EB:24:98:01:AB:FC:61
            X509v3 Basic Constraints: critical
                CA:TRUE
            X509v3 Key Usage: critical
                Digital Signature, Key Encipherment, Certificate Sign, CRL Sign
            X509v3 Extended Key Usage: critical
                TLS Web Client Authentication, TLS Web Server Authentication
            X509v3 Subject Alternative Name: 
                DNS:kubernetes, DNS:kubernetes.default, DNS:kubernetes.default.svc, DNS:kubernetes.default.svc.hermleigh.home, IP Address:172.16.1.10, IP Address:10.233.0.1
    Signature Algorithm: sha256WithRSAEncryption
         a1:cc:c0:8f:e7:c0:94:f4:ee:e9:44:3c:12:21:5b:0f:af:d2:
         f3:e5:25:dc:84:6c:76:3f:30:85:34:1c:52:81:62:83:cf:a0:
         cb:ed:91:6d:0c:74:b7:2d:e0:b9:5c:a1:0b:d7:b8:12:3a:53:
         a4:c4:0c:0e:2e:98:25:ae:88:43:6a:ed:55:24:a7:56:62:60:
         c7:e6:57:5f:df:69:7b:03:cd:d2:c1:5c:65:c9:bb:f9:0c:fd:
         75:dc:23:71:02:e4:04:14:89:8f:bf:ac:ad:ca:60:5a:7d:17:
         6f:36:e6:93:af:0a:5b:94:be:d7:24:fa:ea:79:84:6b:52:17:
         84:7f:ac:c2:a0:6a:86:16:71:4b:30:d0:f8:eb:55:8c:08:0d:
         c5:5f:82:4b:c8:55:05:58:35:a8:29:0a:db:6e:16:eb:49:3c:
         1b:91:45:b1:19:c3:c3:b9:f3:f0:48:ff:4a:bb:1f:d1:41:be:
         8e:02:d3:2b:40:f7:56:5d:a8:54:fe:71:72:7d:d6:67:22:02:
         fd:e2:fd:c4:cf:a2:b5:64:04:02:72:ed:c6:b6:0b:1d:c1:06:
         7f:66:1d:90:b1:2e:e0:97:1b:1b:23:b0:e2:ee:f8:59:dd:c8:
         cf:1c:ad:c3:9c:8b:66:90:78:95:7b:2c:01:72:8a:b7:0f:88:
         6d:6c:7d:e8:df:f5:34:98:09:5e:57:3a:2f:30:9b:77:28:c2:
         32:5b:04:6e:95:57:93:5c:1c:0b:14:0a:4f:c4:5e:ab:db:2e:
         72:d7:c1:b6:a0:e3:8e:39:d5:d2:01:8e:3e:85:dc:35:22:ec:
         3f:6b:dd:cb:cd:10:a9:15:00:02:b5:12:4c:ed:e0:48:1c:45:
         74:24:e1:7b:21:5a:03:4d:bf:78:60:89:a7:ef:2a:e0:91:10:
         fc:e2:20:46:5a:98:a0:16:d2:96:d9:f2:e7:56:cd:00:07:62:
         a1:bb:ca:6f:94:fa:c2:21:86:0a:50:22:28:5c:1b:0e:b4:49:
         4f:49:64:d0:58:09:b5:69:d2:c2:69:23:76:21:21:1e:bd:ef:
         7e:1f:c3:47:e2:a1:4e:5b:b4:95:1e:a3:3d:78:f1:03:bc:48:
         87:f5:3b:b6:d9:b1:28:f4:25:ad:e0:2f:cf:ea:b1:d3:f7:db:
         e4:cf:3c:a6:5d:43:4f:2f:06:f5:50:bc:bc:7f:40:2a:71:bb:
         b0:74:a8:de:b0:5f:5c:95:87:07:ac:dd:3a:cb:7e:bf:98:94:
         b3:67:4f:1b:16:02:48:8a:87:03:a7:6c:e6:a3:92:51:c7:76:
         d2:74:93:58:7f:a4:b9:99:89:f1:10:a4:76:04:cd:f3:18:a4:
         6b:9d:52:cd:ad:cf:84:c3
-----BEGIN CERTIFICATE-----
MIIG1zCCBL+gAwIBAgIBAzANBgkqhkiG9w0BAQsFADBHMQswCQYDVQQGEwJVUzEX
MBUGA1UEChMOSEVSTUxFSUdILkhPTUUxHzAdBgNVBAMTFkhlcm1sZWlnaCBIb21l
IFJvb3QgQ0EwHhcNMjMwNTIyMDQyMzEzWhcNMzMwNTE5MDQyMzEzWjBeMQswCQYD
VQQGEwJVUzEXMBUGA1UECgwOSEVSTUxFSUdILkhPTUUxHjAcBgNVBAsMFUt1YmVy
bmV0ZXMgQ2x1c3RlciBDQTEWMBQGA1UEAwwNa3ViZXJuZXRlcy1jYTCCAiIwDQYJ
KoZIhvcNAQEBBQADggIPADCCAgoCggIBALu87xK8DPnEb2sL/HVg2VYrDB6FmTkx
PEpBC3kqy/ji3TIlUMmWFzO2zbiI9I9qlgDq9KF7jQEAePnmUdXwczQT1gzy9k3S
0bJ1a0H7ar6xN3byTns49RLQfPy1GjMebC3nwKUOjUO8RF9nPpjB8pew3beRCfYk
QFfG4QoVLBQ77yMMzrkKFmTwvQoNOZtAYf1DtcA4anvP8TfMWT36rgJr9onTA1jg
uOxir4y4y/XHJ1iXGP132OS5C5hvY1cwSf8iOfvHP2UnpSh4uBBDcfAXUPCO4dRt
6Hx6gAVDYlFK2xZBSRNEMuPg3rBvfaI21AwMwpF7dPyBKl7eBfQG0Q6GQjFZzduE
Jmxpb5KOPsBn6tjYBOt1L35K1rc7MdpwtOvTAdHE2HelOy+gMxPzGzYMA2uEYlnf
tGPkI63ek8oMvLJ/M98k4PlCWpkrnRXA4DymxHr17TKDkuffxQpxPH6B8Egi7ie7
O5axhz0EmubmDSS0zs24a5q3GUTHCggWWM7ACiWfB7Ztvcn9Z6lpTAdC6BNz4HRX
IwL0/2YntbIzNUdqxGgeHHl3K9asNUa7ucm3vOjocz0wHjOmM/zRpdAE2tG+PTC2
5kfThZP+1dSgXF3s4nRzIO9RpivfGYts/CSGxzY3jzI91qOanJZtdlF6D1K2FL8W
0W3+0Y3ZoFbFAgMBAAGjggG1MIIBsTB6BggrBgEFBQcBAQRuMGwwNQYIKwYBBQUH
MAKGKWh0dHA6Ly9yb290LWNhLmhlcm1sZWlnaC5ob21lL3Jvb3QtY2EuY3J0MDMG
CCsGAQUFBzABhidodHRwOi8vb2NzcC5yb290LWNhLmhlcm1sZWlnaC5ob21lOjkw
ODAwHwYDVR0jBBgwFoAUvrwR8FIwxhUBYunRkUxjuFgHzM0wOgYDVR0fBDMwMTAv
oC2gK4YpaHR0cDovL3Jvb3QtY2EuaGVybWxlaWdoLmhvbWUvcm9vdC1jYS5jcmww
HQYDVR0OBBYEFLoohF/xJU3jKmgcLb7rJJgBq/xhMA8GA1UdEwEB/wQFMAMBAf8w
DgYDVR0PAQH/BAQDAgGmMCAGA1UdJQEB/wQWMBQGCCsGAQUFBwMCBggrBgEFBQcD
ATB0BgNVHREEbTBrggprdWJlcm5ldGVzghJrdWJlcm5ldGVzLmRlZmF1bHSCFmt1
YmVybmV0ZXMuZGVmYXVsdC5zdmOCJWt1YmVybmV0ZXMuZGVmYXVsdC5zdmMuaGVy
bWxlaWdoLmhvbWWHBKwQAQqHBArpAAEwDQYJKoZIhvcNAQELBQADggIBAKHMwI/n
wJT07ulEPBIhWw+v0vPlJdyEbHY/MIU0HFKBYoPPoMvtkW0MdLct4LlcoQvXuBI6
U6TEDA4umCWuiENq7VUkp1ZiYMfmV1/faXsDzdLBXGXJu/kM/XXcI3EC5AQUiY+/
rK3KYFp9F2825pOvCluUvtck+up5hGtSF4R/rMKgaoYWcUsw0PjrVYwIDcVfgkvI
VQVYNagpCttuFutJPBuRRbEZw8O58/BI/0q7H9FBvo4C0ytA91ZdqFT+cXJ91mci
Av3i/cTPorVkBAJy7ca2Cx3BBn9mHZCxLuCXGxsjsOLu+FndyM8crcOci2aQeJV7
LAFyircPiG1sfejf9TSYCV5XOi8wm3cowjJbBG6VV5NcHAsUCk/EXqvbLnLXwbag
44451dIBjj6F3DUi7D9r3cvNEKkVAAK1Ekzt4EgcRXQk4XshWgNNv3hgiafvKuCR
EPziIEZamKAW0pbZ8udWzQAHYqG7ym+U+sIhhgpQIihcGw60SU9JZNBYCbVp0sJp
I3YhIR69734fw0fioU5btJUeoz148QO8SIf1O7bZsSj0Ja3gL8/qsdP32+TPPKZd
Q08vBvVQvLx/QCpxu7B0qN6wX1yVhwes3TrLfr+YlLNnTxsWAkiKhwOnbOajklHH
dtJ0k1h/pLmZifEQpHYEzfMYpGudUs2tz4TD
-----END CERTIFICATE-----
Certificate:
    Data:
        Version: 3 (0x2)
        Serial Number: 1 (0x1)
        Signature Algorithm: sha256WithRSAEncryption
        Issuer: C=US, O=HERMLEIGH.HOME, CN=Hermleigh Home Root CA
        Validity
            Not Before: May 16 16:13:27 2023 GMT
            Not After : May 13 16:13:27 2033 GMT
        Subject: C=US, O=HERMLEIGH.HOME, CN=Hermleigh Home Root CA
        Subject Public Key Info:
            Public Key Algorithm: rsaEncryption
                RSA Public-Key: (4096 bit)
                Modulus:
                    00:bd:89:ae:3c:f3:95:e3:61:cd:b7:de:1e:9d:ca:
                    bf:53:73:33:c0:9b:17:09:1e:0e:e3:f3:8a:03:27:
                    8b:e1:ca:bc:b9:cd:b6:24:2a:5b:27:92:e2:80:82:
                    5b:d5:5a:14:b0:0d:87:1f:53:03:d1:18:42:39:e1:
                    be:e2:db:0c:7d:4d:5b:bb:37:c4:b6:ad:04:c2:0c:
                    29:d2:64:92:e4:86:41:48:61:fa:6a:6d:a2:53:c7:
                    5a:88:46:69:ec:55:bf:7c:11:8a:1e:9f:75:fa:6d:
                    8c:95:a5:22:44:7b:cc:fc:5c:1d:7f:4e:6f:35:ba:
                    ac:13:99:08:f2:d9:93:9e:9b:a7:a3:3e:69:5a:ed:
                    c1:4f:06:d0:31:6a:cb:07:fd:5e:42:35:a7:bb:a2:
                    8d:18:8a:84:97:ff:ac:b0:82:23:5e:41:fc:4a:5a:
                    c5:c1:50:5b:2e:75:e3:cf:50:28:df:a9:6f:74:c8:
                    0a:ff:6f:33:11:22:5d:67:53:22:b8:96:40:06:7a:
                    e5:c1:1b:3b:bb:10:47:21:f4:71:48:2c:6b:f5:04:
                    45:c4:0c:43:3c:73:a2:75:d8:26:c2:52:ee:a5:7f:
                    21:17:9e:1a:c7:6b:32:0a:8a:1e:b3:de:64:de:69:
                    f3:70:17:e6:5d:c2:c6:86:ad:b7:a0:75:54:e5:6f:
                    99:f3:1e:21:c9:27:e3:cd:84:29:2d:3f:25:ed:74:
                    da:20:38:91:4a:e0:76:e3:bb:a1:36:57:7c:83:a5:
                    54:1f:d4:97:04:66:8c:3c:06:16:84:aa:36:2f:f9:
                    04:ee:2b:b6:28:4d:59:b7:b7:63:c4:d8:df:1b:46:
                    35:6c:5f:8a:6d:b1:d5:4e:66:70:ae:91:07:a9:a8:
                    47:b8:e4:1a:2d:15:bb:01:21:cc:e3:b6:d1:90:b8:
                    8f:72:44:7d:24:78:7b:c7:ef:2d:92:61:bd:77:d0:
                    57:fa:2e:04:41:62:bb:89:73:7f:46:c7:d0:ab:c3:
                    8b:5c:5f:d9:e6:ad:58:c9:3b:d9:e5:bc:c3:db:63:
                    60:e1:dd:86:b0:58:83:96:3d:e1:31:64:b3:07:6c:
                    e3:81:44:88:9a:9a:fd:9b:d4:a7:80:57:c5:7b:3d:
                    c9:c0:db:88:4a:71:9e:53:8c:57:5b:e9:4d:6a:19:
                    40:aa:28:84:a9:7e:f8:23:3f:46:e9:ec:2b:eb:28:
                    22:6c:c1:4b:00:a2:50:60:78:a2:d7:57:4b:c3:cb:
                    cd:49:8f:79:ff:ef:1c:a5:ae:9a:45:41:55:13:33:
                    0d:33:4f:1c:2f:aa:18:35:13:ed:c0:72:d7:d4:a7:
                    02:29:5b:ec:34:01:26:84:65:97:c1:e3:d7:a7:72:
                    5a:b2:2b
                Exponent: 65537 (0x10001)
        X509v3 extensions:
            X509v3 Basic Constraints: critical
                CA:TRUE
            X509v3 Key Usage: critical
                Digital Signature, Certificate Sign, CRL Sign
            X509v3 Extended Key Usage: critical
                Code Signing, TLS Web Client Authentication, TLS Web Server Authentication, E-mail Protection, Time Stamping
            X509v3 Subject Key Identifier: 
                BE:BC:11:F0:52:30:C6:15:01:62:E9:D1:91:4C:63:B8:58:07:CC:CD
    Signature Algorithm: sha256WithRSAEncryption
         6f:ef:88:9b:bd:9b:a0:40:00:99:b2:89:61:7b:04:bb:46:fa:
         14:6b:54:98:e6:e7:55:3c:15:75:0b:e8:82:dc:7d:44:bf:70:
         1a:86:44:74:03:e3:1e:78:ac:f2:73:34:88:97:a7:52:93:37:
         0b:33:55:9b:75:fb:89:ce:76:8a:4b:61:77:c7:9e:b7:f9:87:
         aa:bd:ae:3f:95:a7:de:b0:fd:c3:7b:e6:b8:e0:23:21:58:f2:
         da:30:3d:41:23:3a:e2:a5:6f:11:7d:d7:88:58:a1:70:b2:81:
         b1:a7:aa:6a:7a:4f:73:7b:2d:99:a7:7e:bb:39:46:b0:03:98:
         e4:49:76:57:3c:d9:6c:68:0d:5c:14:8c:8a:9a:80:05:a2:62:
         dd:dc:01:c2:bb:37:50:83:67:a4:be:45:8c:02:f9:d4:90:5c:
         90:9c:4d:92:47:8f:06:03:e4:31:c3:35:e0:63:b5:3f:9f:86:
         1e:cc:c4:e8:97:9c:8e:03:fc:cf:09:9c:22:a0:70:04:24:53:
         eb:22:6a:8b:19:d5:0f:a8:2b:2b:d8:21:b4:bb:54:ec:90:29:
         a4:e5:23:34:7a:5b:04:f0:c5:3e:f0:56:d0:fe:4e:a6:8d:47:
         e1:f3:47:a7:aa:4d:7e:9f:51:84:02:19:c5:39:a9:1d:65:3b:
         7d:c4:ad:a9:13:3d:ae:7d:6f:47:f6:57:1a:0a:5f:bf:19:ac:
         8d:8e:a8:e6:12:27:82:f6:49:c5:e7:ec:ad:8c:07:24:33:58:
         56:70:53:f0:ef:d5:35:89:7f:18:2d:75:40:9a:d4:ca:c8:c2:
         01:07:1d:a2:b8:a7:97:0a:68:d9:85:ee:72:3b:7f:d9:01:cc:
         c9:b2:b5:30:68:a2:2a:93:52:67:98:6e:d2:72:9f:b8:44:43:
         01:6e:49:02:d0:ea:8c:fd:6a:9b:32:d9:83:80:e5:85:79:25:
         e2:c5:ec:7a:bf:6d:21:cd:75:a3:61:80:0e:66:91:36:41:12:
         b6:f8:f9:9f:c0:32:78:ac:f5:5b:11:3e:32:ed:da:65:64:8e:
         77:bb:0a:b2:0b:ea:3c:c6:83:b7:55:d9:89:ad:8a:94:3e:2a:
         a3:67:bf:0f:17:f3:f5:78:55:63:82:4c:f5:ac:81:29:0e:ad:
         04:b3:d1:8e:a2:ba:4e:92:6b:88:26:84:bf:46:a0:b8:72:69:
         fe:1b:4a:c1:72:e7:5b:16:83:49:fd:25:f3:fd:d1:0d:21:3a:
         d0:de:59:5c:93:5b:92:65:42:f9:cf:ad:7f:09:d7:7c:fe:02:
         b3:1c:83:90:24:76:86:76:60:42:ca:ef:f5:1e:69:c2:62:ae:
         a8:a7:4d:b3:e1:0e:91:ff
-----BEGIN CERTIFICATE-----
MIIFjTCCA3WgAwIBAgIBATANBgkqhkiG9w0BAQsFADBHMQswCQYDVQQGEwJVUzEX
MBUGA1UEChMOSEVSTUxFSUdILkhPTUUxHzAdBgNVBAMTFkhlcm1sZWlnaCBIb21l
IFJvb3QgQ0EwHhcNMjMwNTE2MTYxMzI3WhcNMzMwNTEzMTYxMzI3WjBHMQswCQYD
VQQGEwJVUzEXMBUGA1UEChMOSEVSTUxFSUdILkhPTUUxHzAdBgNVBAMTFkhlcm1s
ZWlnaCBIb21lIFJvb3QgQ0EwggIiMA0GCSqGSIb3DQEBAQUAA4ICDwAwggIKAoIC
AQC9ia4885XjYc233h6dyr9TczPAmxcJHg7j84oDJ4vhyry5zbYkKlsnkuKAglvV
WhSwDYcfUwPRGEI54b7i2wx9TVu7N8S2rQTCDCnSZJLkhkFIYfpqbaJTx1qIRmns
Vb98EYoen3X6bYyVpSJEe8z8XB1/Tm81uqwTmQjy2ZOem6ejPmla7cFPBtAxassH
/V5CNae7oo0YioSX/6ywgiNeQfxKWsXBUFsudePPUCjfqW90yAr/bzMRIl1nUyK4
lkAGeuXBGzu7EEch9HFILGv1BEXEDEM8c6J12CbCUu6lfyEXnhrHazIKih6z3mTe
afNwF+ZdwsaGrbegdVTlb5nzHiHJJ+PNhCktPyXtdNogOJFK4Hbju6E2V3yDpVQf
1JcEZow8BhaEqjYv+QTuK7YoTVm3t2PE2N8bRjVsX4ptsdVOZnCukQepqEe45Bot
FbsBIczjttGQuI9yRH0keHvH7y2SYb130Ff6LgRBYruJc39Gx9Crw4tcX9nmrVjJ
O9nlvMPbY2Dh3YawWIOWPeExZLMHbOOBRIiamv2b1KeAV8V7PcnA24hKcZ5TjFdb
6U1qGUCqKISpfvgjP0bp7CvrKCJswUsAolBgeKLXV0vDy81Jj3n/7xylrppFQVUT
Mw0zTxwvqhg1E+3ActfUpwIpW+w0ASaEZZfB49enclqyKwIDAQABo4GDMIGAMA8G
A1UdEwEB/wQFMAMBAf8wDgYDVR0PAQH/BAQDAgGGMD4GA1UdJQEB/wQ0MDIGCCsG
AQUFBwMDBggrBgEFBQcDAgYIKwYBBQUHAwEGCCsGAQUFBwMEBggrBgEFBQcDCDAd
BgNVHQ4EFgQUvrwR8FIwxhUBYunRkUxjuFgHzM0wDQYJKoZIhvcNAQELBQADggIB
AG/viJu9m6BAAJmyiWF7BLtG+hRrVJjm51U8FXUL6ILcfUS/cBqGRHQD4x54rPJz
NIiXp1KTNwszVZt1+4nOdopLYXfHnrf5h6q9rj+Vp96w/cN75rjgIyFY8towPUEj
OuKlbxF914hYoXCygbGnqmp6T3N7LZmnfrs5RrADmORJdlc82WxoDVwUjIqagAWi
Yt3cAcK7N1CDZ6S+RYwC+dSQXJCcTZJHjwYD5DHDNeBjtT+fhh7MxOiXnI4D/M8J
nCKgcAQkU+siaosZ1Q+oKyvYIbS7VOyQKaTlIzR6WwTwxT7wVtD+TqaNR+HzR6eq
TX6fUYQCGcU5qR1lO33ErakTPa59b0f2VxoKX78ZrI2OqOYSJ4L2ScXn7K2MByQz
WFZwU/Dv1TWJfxgtdUCa1MrIwgEHHaK4p5cKaNmF7nI7f9kBzMmytTBooiqTUmeY
btJyn7hEQwFuSQLQ6oz9apsy2YOA5YV5JeLF7Hq/bSHNdaNhgA5mkTZBErb4+Z/A
Mnis9VsRPjLt2mVkjne7CrIL6jzGg7dV2YmtipQ+KqNnvw8X8/V4VWOCTPWsgSkO
rQSz0Y6iuk6Sa4gmhL9GoLhyaf4bSsFy51sWg0n9JfP90Q0hOtDeWVyTW5JlQvnP
rX8J13z+ArMcg5AkdoZ2YELK7/UeacJirqinTbPhDpH/
-----END CERTIFICATE-----
